; Function Attrs: nounwind sspstrong uwtable
define internal i64 @strscan_scan_full(i64 noundef %0, i64 noundef %1, i64 noundef %2, i64 noundef %3) #0 {
  %5 = and i64 %2, -5
  %6 = icmp ne i64 %5, 0
  %7 = zext i1 %6 to i32
  %8 = and i64 %3, -5
  %9 = icmp ne i64 %8, 0
  %10 = zext i1 %9 to i32
  %11 = tail call fastcc i64 @strscan_do_scan(i64 noundef %0, i64 noundef %1, i32 noundef %7, i32 noundef %10, i32 noundef 1)
  ret i64 %11
}